target datalayout = "e-m:e-p270:32:32-p271:32:32-p272:64:64-i64:64-i128:128-f80:128-n8:16:32:64-S128"
target triple = "x86_64-pc-linux-gnu"

; Function Attrs: null_pointer_is_valid sspstrong uwtable
define internal zeroext i16 @calculateCRCtvb(ptr noundef %0, i32 noundef %1, i32 noundef %2) #0 {
  %4 = alloca ptr, align 8
  %5 = alloca i32, align 4
  %6 = alloca i32, align 4
  %7 = alloca i16, align 2
  store ptr %0, ptr %4, align 8
  store i32 %1, ptr %5, align 4
  store i32 %2, ptr %6, align 4
  call void @llvm.lifetime.start.p0(i64 2, ptr %7) #11
  %8 = load ptr, ptr %4, align 8
  %9 = load i32, ptr %5, align 4
  %10 = load i32, ptr %6, align 4
  %11 = call zeroext i16 @crc16_0x3D65_tvb_offset_seed(ptr noundef %8, i32 noundef %9, i32 noundef %10, i16 noundef zeroext 0)
  store i16 %11, ptr %7, align 2
  %12 = load i16, ptr %7, align 2
  %13 = zext i16 %12 to i32
  %14 = xor i32 %13, -1
  %15 = trunc i32 %14 to i16
  call void @llvm.lifetime.end.p0(i64 2, ptr %7) #11
  ret i16 %15
}

; Function Attrs: null_pointer_is_valid sspstrong uwtable
define internal zeroext i1 @check_dnp3_header(ptr noundef %0, i1 noundef zeroext %1) #0 {
  %3 = alloca i1, align 1
  %4 = alloca ptr, align 8
  %5 = alloca i8, align 1
  %6 = alloca i8, align 1
  %7 = alloca i32, align 4
  %8 = alloca i16, align 2
  %9 = alloca i32, align 4
  store ptr %0, ptr %4, align 8
  %10 = zext i1 %1 to i8
  store i8 %10, ptr %5, align 1
  call void @llvm.lifetime.start.p0(i64 1, ptr %6) #11
  store i8 0, ptr %6, align 1
  call void @llvm.lifetime.start.p0(i64 4, ptr %7) #11
  %11 = load ptr, ptr %4, align 8
  %12 = call i32 @tvb_captured_length(ptr noundef %11)
  store i32 %12, ptr %7, align 4
  %13 = load i32, ptr %7, align 4
  %14 = icmp sge i32 %13, 10
  br i1 %14, label %15, label %25

15:                                               ; preds = %2
  call void @llvm.lifetime.start.p0(i64 2, ptr %8) #11
  %16 = load ptr, ptr %4, align 8
  %17 = call zeroext i16 @calculateCRCtvb(ptr noundef %16, i32 noundef 0, i32 noundef 8)
  store i16 %17, ptr %8, align 2
  %18 = load i16, ptr %8, align 2
  %19 = zext i16 %18 to i32
  %20 = load ptr, ptr %4, align 8
  %21 = call zeroext i16 @tvb_get_letohs(ptr noundef %20, i32 noundef 8)
  %22 = zext i16 %21 to i32
  %23 = icmp eq i32 %19, %22
  %24 = zext i1 %23 to i8
  store i8 %24, ptr %6, align 1
  call void @llvm.lifetime.end.p0(i64 2, ptr %8) #11
  br label %25

25:                                               ; preds = %15, %2
  %26 = load i8, ptr %5, align 1, !range !6, !noundef !7
  %27 = trunc i8 %26 to i1
  br i1 %27, label %28, label %38

28:                                               ; preds = %25
  %29 = load i8, ptr %6, align 1, !range !6, !noundef !7
  %30 = trunc i8 %29 to i1
  br i1 %30, label %31, label %36

31:                                               ; preds = %28
  %32 = load ptr, ptr %4, align 8
  %33 = call zeroext i16 @tvb_get_ntohs(ptr noundef %32, i32 noundef 0)
  %34 = zext i16 %33 to i32
  %35 = icmp ne i32 %34, 1380
  br i1 %35, label %36, label %37

36:                                               ; preds = %31, %28
  store i1 false, ptr %3, align 1
  store i32 1, ptr %9, align 4
  br label %62

37:                                               ; preds = %31
  br label %61

38:                                               ; preds = %25
  %39 = load ptr, ptr %4, align 8
  %40 = call zeroext i8 @tvb_get_uint8(ptr noundef %39, i32 noundef 0)
  %41 = zext i8 %40 to i32
  %42 = icmp ne i32 %41, 5
  br i1 %42, label %43, label %44

43:                                               ; preds = %38
  store i1 false, ptr %3, align 1
  store i32 1, ptr %9, align 4
  br label %62

44:                                               ; preds = %38
  %45 = load i32, ptr %7, align 4
  %46 = icmp sgt i32 %45, 1
  br i1 %46, label %47, label %53

47:                                               ; preds = %44
  %48 = load ptr, ptr %4, align 8
  %49 = call zeroext i8 @tvb_get_uint8(ptr noundef %48, i32 noundef 1)
  %50 = zext i8 %49 to i32
  %51 = icmp ne i32 %50, 100
  br i1 %51, label %52, label %53

52:                                               ; preds = %47
  store i1 false, ptr %3, align 1
  store i32 1, ptr %9, align 4
  br label %62

53:                                               ; preds = %47, %44
  %54 = load i32, ptr %7, align 4
  %55 = icmp sge i32 %54, 10
  br i1 %55, label %56, label %60

56:                                               ; preds = %53
  %57 = load i8, ptr %6, align 1, !range !6, !noundef !7
  %58 = trunc i8 %57 to i1
  br i1 %58, label %60, label %59

59:                                               ; preds = %56
  store i1 false, ptr %3, align 1
  store i32 1, ptr %9, align 4
  br label %62

60:                                               ; preds = %56, %53
  br label %61

61:                                               ; preds = %60, %37
  store i1 true, ptr %3, align 1
  store i32 1, ptr %9, align 4
  br label %62

62:                                               ; preds = %61, %59, %52, %43, %36
  call void @llvm.lifetime.end.p0(i64 4, ptr %7) #11
  call void @llvm.lifetime.end.p0(i64 1, ptr %6) #11
  %63 = load i1, ptr %3, align 1
  ret i1 %63
}

; Function Attrs: null_pointer_is_valid sspstrong uwtable
define internal zeroext i1 @dnp3_udp_check_header_heur(ptr noundef %0, ptr noundef %1, i32 noundef %2, ptr noundef %3) #0 {
  %5 = alloca ptr, align 8
  %6 = alloca ptr, align 8
  %7 = alloca i32, align 4
  %8 = alloca ptr, align 8
  store ptr %0, ptr %5, align 8
  store ptr %1, ptr %6, align 8
  store i32 %2, ptr %7, align 4
  store ptr %3, ptr %8, align 8
  %9 = load ptr, ptr %6, align 8
  %10 = call zeroext i1 @check_dnp3_header(ptr noundef %9, i1 noundef zeroext true)
  ret i1 %10
}