; Function Attrs: null_pointer_is_valid sspstrong uwtable
define internal zeroext i1 @dnp3_udp_check_header_heur(ptr readnone captures(none) %0, ptr noundef %1, i32 %2, ptr readnone captures(none) %3) #0 {
  %5 = tail call i32 @tvb_captured_length(ptr noundef %1)
  %6 = icmp slt i32 %5, 10
  br i1 %6, label %check_dnp3_header.exit, label %7

7:                                                ; preds = %4
  %8 = tail call zeroext i16 @crc16_0x3D65_tvb_offset_seed(ptr noundef %1, i32 noundef 0, i32 noundef 8, i16 noundef zeroext 0)
  %9 = tail call zeroext i16 @tvb_get_letohs(ptr noundef %1, i32 noundef 8)
  %10 = xor i16 %9, %8
  %11 = icmp eq i16 %10, -1
  br i1 %11, label %12, label %check_dnp3_header.exit

12:                                               ; preds = %7
  %13 = tail call zeroext i16 @tvb_get_ntohs(ptr noundef %1, i32 noundef 0)
  %.not15.i = icmp eq i16 %13, 1380
  br label %check_dnp3_header.exit

check_dnp3_header.exit:                           ; preds = %12, %4, %7
  %.0.i = phi i1 [ false, %7 ], [ false, %4 ], [ %.not15.i, %12 ]
  ret i1 %.0.i
}